target datalayout = "e-m:e-p270:32:32-p271:32:32-p272:64:64-i64:64-i128:128-f80:128-n8:16:32:64-S128"
target triple = "x86_64-pc-linux-gnu"

%struct._packet_info = type { ptr, ptr, i32, i32, %struct.nstime_t, %struct.nstime_t, %struct.nstime_t, i8, ptr, ptr, ptr, ptr, %struct._address, %struct._address, %struct._address, %struct._address, %struct._address, %struct._address, i32, ptr, i8, [3 x i8], %struct.anon, i32, i32, i32, i32, ptr, i8, ptr, ptr, i16, i16, i32, i32, i16, i32, i32, ptr, ptr, ptr, i8, i8, i16, i16, i16, i32, i16, i16, ptr, ptr, ptr, ptr, ptr, i32, i32 }
%struct.nstime_t = type { i64, i32 }
%struct._address = type { i32, i32, ptr, ptr }
%struct.anon = type { i8, [3 x i8] }

@hf_amf_stringlength = internal global i32 0, align 4
@hf_amf_string = internal global i32 0, align 4
@hf_amf_end_of_object_marker = internal global i32 0, align 4
@ett_amf_property = internal global i32 0, align 4
@ett_amf_string = internal global i32 0, align 4
@.str.401 = private unnamed_addr constant [14 x i8] c"Property '%s'\00", align 1
@.str.402 = private unnamed_addr constant [9 x i8] c"Name: %s\00", align 1

; Function Attrs: null_pointer_is_valid sspstrong uwtable
define internal i32 @dissect_amf0_property_list(ptr noundef %0, ptr noundef %1, i32 noundef %2, ptr noundef %3, ptr noundef %4, ptr noundef %5) #0 {
  %7 = alloca ptr, align 8
  %8 = alloca ptr, align 8
  %9 = alloca i32, align 4
  %10 = alloca ptr, align 8
  %11 = alloca ptr, align 8
  %12 = alloca ptr, align 8
  %13 = alloca ptr, align 8
  %14 = alloca ptr, align 8
  %15 = alloca ptr, align 8
  %16 = alloca i32, align 4
  %17 = alloca ptr, align 8
  %18 = alloca i32, align 4
  store ptr %0, ptr %7, align 8
  store ptr %1, ptr %8, align 8
  store i32 %2, ptr %9, align 4
  store ptr %3, ptr %10, align 8
  store ptr %4, ptr %11, align 8
  store ptr %5, ptr %12, align 8
  call void @llvm.lifetime.start.p0(i64 8, ptr %13) #12
  call void @llvm.lifetime.start.p0(i64 8, ptr %14) #12
  call void @llvm.lifetime.start.p0(i64 8, ptr %15) #12
  call void @llvm.lifetime.start.p0(i64 4, ptr %16) #12
  call void @llvm.lifetime.start.p0(i64 8, ptr %17) #12
  call void @llvm.lifetime.start.p0(i64 4, ptr %18) #12
  store i32 0, ptr %18, align 4
  br label %19

19:                                               ; preds = %34, %6
  %20 = load ptr, ptr %7, align 8
  %21 = load i32, ptr %9, align 4
  %22 = call zeroext i16 @tvb_get_ntohs(ptr noundef %20, i32 noundef %21)
  %23 = zext i16 %22 to i32
  store i32 %23, ptr %16, align 4
  %24 = load i32, ptr %16, align 4
  %25 = icmp eq i32 %24, 0
  br i1 %25, label %26, label %34

26:                                               ; preds = %19
  %27 = load ptr, ptr %7, align 8
  %28 = load i32, ptr %9, align 4
  %29 = add i32 %28, 2
  %30 = call zeroext i8 @tvb_get_uint8(ptr noundef %27, i32 noundef %29)
  %31 = zext i8 %30 to i32
  %32 = icmp eq i32 %31, 9
  br i1 %32, label %33, label %34

33:                                               ; preds = %26
  br label %86

34:                                               ; preds = %26, %19
  %35 = load i32, ptr %18, align 4
  %36 = add i32 %35, 1
  store i32 %36, ptr %18, align 4
  %37 = load ptr, ptr %8, align 8
  %38 = getelementptr inbounds nuw %struct._packet_info, ptr %37, i32 0, i32 51
  %39 = load ptr, ptr %38, align 8
  %40 = load ptr, ptr %7, align 8
  %41 = load i32, ptr %9, align 4
  %42 = add i32 %41, 2
  %43 = load i32, ptr %16, align 4
  %44 = call ptr @tvb_get_string_enc(ptr noundef %39, ptr noundef %40, i32 noundef %42, i32 noundef %43, i32 noundef 0)
  store ptr %44, ptr %17, align 8
  %45 = load ptr, ptr %10, align 8
  %46 = load ptr, ptr %7, align 8
  %47 = load i32, ptr %9, align 4
  %48 = load i32, ptr @ett_amf_property, align 4
  %49 = load ptr, ptr %17, align 8
  %50 = call ptr (ptr, ptr, i32, i32, i32, ptr, ptr, ...) @proto_tree_add_subtree_format(ptr noundef %45, ptr noundef %46, i32 noundef %47, i32 noundef -1, i32 noundef %48, ptr noundef %13, ptr noundef @.str.401, ptr noundef %49)
  store ptr %50, ptr %14, align 8
  %51 = load ptr, ptr %14, align 8
  %52 = load ptr, ptr %7, align 8
  %53 = load i32, ptr %9, align 4
  %54 = load i32, ptr %16, align 4
  %55 = add i32 2, %54
  %56 = load i32, ptr @ett_amf_string, align 4
  %57 = load ptr, ptr %17, align 8
  %58 = call ptr (ptr, ptr, i32, i32, i32, ptr, ptr, ...) @proto_tree_add_subtree_format(ptr noundef %51, ptr noundef %52, i32 noundef %53, i32 noundef %55, i32 noundef %56, ptr noundef null, ptr noundef @.str.402, ptr noundef %57)
  store ptr %58, ptr %15, align 8
  %59 = load ptr, ptr %15, align 8
  %60 = load i32, ptr @hf_amf_stringlength, align 4
  %61 = load ptr, ptr %7, align 8
  %62 = load i32, ptr %9, align 4
  %63 = load i32, ptr %16, align 4
  %64 = call ptr @proto_tree_add_uint(ptr noundef %59, i32 noundef %60, ptr noundef %61, i32 noundef %62, i32 noundef 2, i32 noundef %63)
  %65 = load i32, ptr %9, align 4
  %66 = add i32 %65, 2
  store i32 %66, ptr %9, align 4
  %67 = load ptr, ptr %15, align 8
  %68 = load i32, ptr @hf_amf_string, align 4
  %69 = load ptr, ptr %7, align 8
  %70 = load i32, ptr %9, align 4
  %71 = load i32, ptr %16, align 4
  %72 = call ptr @proto_tree_add_item(ptr noundef %67, i32 noundef %68, ptr noundef %69, i32 noundef %70, i32 noundef %71, i32 noundef 2)
  %73 = load i32, ptr %16, align 4
  %74 = load i32, ptr %9, align 4
  %75 = add i32 %74, %73
  store i32 %75, ptr %9, align 4
  %76 = load ptr, ptr %7, align 8
  %77 = load ptr, ptr %8, align 8
  %78 = load i32, ptr %9, align 4
  %79 = load ptr, ptr %14, align 8
  %80 = load ptr, ptr %12, align 8
  %81 = load ptr, ptr %13, align 8
  %82 = call i32 @dissect_amf0_value_type(ptr noundef %76, ptr noundef %77, i32 noundef %78, ptr noundef %79, ptr noundef %80, ptr noundef %81)
  store i32 %82, ptr %9, align 4
  %83 = load ptr, ptr %13, align 8
  %84 = load ptr, ptr %7, align 8
  %85 = load i32, ptr %9, align 4
  call void @proto_item_set_end(ptr noundef %83, ptr noundef %84, i32 noundef %85)
  br label %19

86:                                               ; preds = %33
  %87 = load ptr, ptr %10, align 8
  %88 = load i32, ptr @hf_amf_end_of_object_marker, align 4
  %89 = load ptr, ptr %7, align 8
  %90 = load i32, ptr %9, align 4
  %91 = call ptr @proto_tree_add_item(ptr noundef %87, i32 noundef %88, ptr noundef %89, i32 noundef %90, i32 noundef 3, i32 noundef 0)
  %92 = load i32, ptr %9, align 4
  %93 = add i32 %92, 3
  store i32 %93, ptr %9, align 4
  %94 = load i32, ptr %18, align 4
  %95 = load ptr, ptr %11, align 8
  store i32 %94, ptr %95, align 4
  %96 = load i32, ptr %9, align 4
  call void @llvm.lifetime.end.p0(i64 4, ptr %18) #12
  call void @llvm.lifetime.end.p0(i64 8, ptr %17) #12
  call void @llvm.lifetime.end.p0(i64 4, ptr %16) #12
  call void @llvm.lifetime.end.p0(i64 8, ptr %15) #12
  call void @llvm.lifetime.end.p0(i64 8, ptr %14) #12
  call void @llvm.lifetime.end.p0(i64 8, ptr %13) #12
  ret i32 %96
}