; Function Attrs: null_pointer_is_valid sspstrong uwtable
define internal fastcc noundef i32 @dissect_amf0_property_list(ptr noundef %0, ptr noundef %1, i32 noundef %2, ptr noundef %3, ptr noundef writeonly captures(none) %4, ptr noundef writeonly captures(none) %5) unnamed_addr #0 {
  %7 = alloca ptr, align 8
  call void @llvm.lifetime.start.p0(i64 8, ptr nonnull %7) #12
  %8 = getelementptr inbounds nuw i8, ptr %1, i64 408
  br label %9

9:                                                ; preds = %._crit_edge, %6
  %.043 = phi i32 [ %2, %6 ], [ %31, %._crit_edge ]
  %.0 = phi i32 [ 0, %6 ], [ %17, %._crit_edge ]
  %10 = call zeroext i16 @tvb_get_ntohs(ptr noundef %0, i32 noundef %.043)
  %11 = zext i16 %10 to i32
  %12 = icmp eq i16 %10, 0
  %13 = add i32 %.043, 2
  br i1 %12, label %14, label %._crit_edge

14:                                               ; preds = %9
  %15 = call zeroext i8 @tvb_get_uint8(ptr noundef %0, i32 noundef %13)
  %16 = icmp eq i8 %15, 9
  br i1 %16, label %33, label %._crit_edge

._crit_edge:                                      ; preds = %9, %14
  %17 = add i32 %.0, 1
  %18 = load ptr, ptr %8, align 8
  %19 = call ptr @tvb_get_string_enc(ptr noundef %18, ptr noundef %0, i32 noundef %13, i32 noundef %11, i32 noundef 0)
  %20 = load i32, ptr @ett_amf_property, align 4
  %21 = call ptr (ptr, ptr, i32, i32, i32, ptr, ptr, ...) @proto_tree_add_subtree_format(ptr noundef %3, ptr noundef %0, i32 noundef %.043, i32 noundef -1, i32 noundef %20, ptr noundef nonnull %7, ptr noundef nonnull @.str.401, ptr noundef %19)
  %22 = add nuw nsw i32 %11, 2
  %23 = load i32, ptr @ett_amf_string, align 4
  %24 = call ptr (ptr, ptr, i32, i32, i32, ptr, ptr, ...) @proto_tree_add_subtree_format(ptr noundef %21, ptr noundef %0, i32 noundef %.043, i32 noundef %22, i32 noundef %23, ptr noundef null, ptr noundef nonnull @.str.402, ptr noundef %19)
  %25 = load i32, ptr @hf_amf_stringlength, align 4
  %26 = call ptr @proto_tree_add_uint(ptr noundef %24, i32 noundef %25, ptr noundef %0, i32 noundef %.043, i32 noundef 2, i32 noundef %11)
  %27 = load i32, ptr @hf_amf_string, align 4
  %28 = call ptr @proto_tree_add_item(ptr noundef %24, i32 noundef %27, ptr noundef %0, i32 noundef %13, i32 noundef %11, i32 noundef 2)
  %29 = add i32 %13, %11
  %30 = load ptr, ptr %7, align 8
  %31 = call fastcc i32 @dissect_amf0_value_type(ptr noundef %0, ptr noundef %1, i32 noundef %29, ptr noundef %21, ptr noundef %5, ptr noundef %30)
  %32 = load ptr, ptr %7, align 8
  call void @proto_item_set_end(ptr noundef %32, ptr noundef %0, i32 noundef %31)
  br label %9

33:                                               ; preds = %14
  %34 = load i32, ptr @hf_amf_end_of_object_marker, align 4
  %35 = call ptr @proto_tree_add_item(ptr noundef %3, i32 noundef %34, ptr noundef %0, i32 noundef %.043, i32 noundef 3, i32 noundef 0)
  %36 = add i32 %.043, 3
  store i32 %.0, ptr %4, align 4
  call void @llvm.lifetime.end.p0(i64 8, ptr nonnull %7) #12
  ret i32 %36
}